; Function Attrs: nounwind uwtable
define hidden void @luaD_hook(ptr noundef %0, i32 noundef %1, i32 noundef %2, i32 noundef %3, i32 noundef %4) local_unnamed_addr #0 {
  %6 = alloca %struct.lua_Debug, align 8
  %7 = getelementptr inbounds nuw i8, ptr %0, i64 160
  %8 = load volatile ptr, ptr %7, align 8, !tbaa !44
  %.not = icmp eq ptr %8, null
  br i1 %.not, label %61, label %9

9:                                                ; preds = %5
  %10 = getelementptr inbounds nuw i8, ptr %0, i64 11
  %11 = load i8, ptr %10, align 1, !tbaa !45
  %.not40 = icmp eq i8 %11, 0
  br i1 %.not40, label %61, label %12

12:                                               ; preds = %9
  %13 = getelementptr inbounds nuw i8, ptr %0, i64 32
  %14 = load ptr, ptr %13, align 8, !tbaa !46
  %15 = getelementptr inbounds nuw i8, ptr %0, i64 16
  %16 = load ptr, ptr %15, align 8, !tbaa !27
  %17 = getelementptr inbounds nuw i8, ptr %0, i64 48
  %18 = load ptr, ptr %17, align 8, !tbaa !27
  %19 = ptrtoint ptr %16 to i64
  %20 = ptrtoint ptr %18 to i64
  %21 = sub i64 %19, %20
  %22 = getelementptr inbounds nuw i8, ptr %14, i64 8
  %23 = load ptr, ptr %22, align 8, !tbaa !27
  %24 = ptrtoint ptr %23 to i64
  %25 = sub i64 %24, %20
  call void @llvm.lifetime.start.p0(i64 144, ptr nonnull %6) #13
  store i32 %1, ptr %6, align 8, !tbaa !47
  %26 = getelementptr inbounds nuw i8, ptr %6, i64 48
  store i32 %2, ptr %26, align 8, !tbaa !49
  %27 = getelementptr inbounds nuw i8, ptr %6, i64 136
  store ptr %14, ptr %27, align 8, !tbaa !50
  %28 = getelementptr inbounds nuw i8, ptr %0, i64 196
  store i32 %3, ptr %28, align 4, !tbaa !51
  %29 = getelementptr inbounds nuw i8, ptr %0, i64 200
  store i32 %4, ptr %29, align 4, !tbaa !52
  %30 = getelementptr inbounds nuw i8, ptr %14, i64 60
  %31 = load i32, ptr %30, align 4, !tbaa !43
  %32 = and i32 %31, 32768
  %.not41 = icmp eq i32 %32, 0
  br i1 %.not41, label %33, label %37

33:                                               ; preds = %12
  %34 = load ptr, ptr %22, align 8, !tbaa !27
  %35 = icmp ult ptr %16, %34
  br i1 %35, label %36, label %37

36:                                               ; preds = %33
  store ptr %34, ptr %15, align 8, !tbaa !27
  %.pre42 = ptrtoint ptr %34 to i64
  br label %37

37:                                               ; preds = %36, %33, %12
  %.pre-phi = phi i64 [ %.pre42, %36 ], [ %19, %33 ], [ %19, %12 ]
  %38 = phi ptr [ %34, %36 ], [ %16, %33 ], [ %16, %12 ]
  %39 = getelementptr inbounds nuw i8, ptr %0, i64 40
  %40 = load ptr, ptr %39, align 8, !tbaa !27
  %41 = ptrtoint ptr %40 to i64
  %42 = sub i64 %41, %.pre-phi
  %43 = icmp slt i64 %42, 336
  br i1 %43, label %44, label %46, !prof !42

44:                                               ; preds = %37
  %45 = tail call i32 @luaD_growstack(ptr noundef nonnull %0, i32 noundef 20, i32 noundef 1)
  %.pre = load ptr, ptr %15, align 8, !tbaa !27
  br label %46

46:                                               ; preds = %37, %44
  %47 = phi ptr [ %38, %37 ], [ %.pre, %44 ]
  %48 = load ptr, ptr %22, align 8, !tbaa !27
  %49 = getelementptr inbounds nuw i8, ptr %47, i64 320
  %50 = icmp ult ptr %48, %49
  br i1 %50, label %51, label %52

51:                                               ; preds = %46
  store ptr %49, ptr %22, align 8, !tbaa !27
  br label %52

52:                                               ; preds = %51, %46
  store i8 0, ptr %10, align 1, !tbaa !45
  %53 = load i32, ptr %30, align 4, !tbaa !43
  %54 = or i32 %53, 1048576
  store i32 %54, ptr %30, align 4, !tbaa !43
  call void %8(ptr noundef nonnull %0, ptr noundef nonnull %6) #13
  store i8 1, ptr %10, align 1, !tbaa !45
  %55 = load ptr, ptr %17, align 8, !tbaa !27
  %56 = getelementptr inbounds i8, ptr %55, i64 %25
  store ptr %56, ptr %22, align 8, !tbaa !27
  %57 = load ptr, ptr %17, align 8, !tbaa !27
  %58 = getelementptr inbounds i8, ptr %57, i64 %21
  store ptr %58, ptr %15, align 8, !tbaa !27
  %59 = load i32, ptr %30, align 4, !tbaa !43
  %60 = and i32 %59, -1048577
  store i32 %60, ptr %30, align 4, !tbaa !43
  call void @llvm.lifetime.end.p0(i64 144, ptr nonnull %6) #13
  br label %61

61:                                               ; preds = %52, %9, %5
  ret void
}